; Function Attrs: mustprogress nofree norecurse nosync nounwind willreturn memory(readwrite, inaccessiblemem: none) uwtable
define hidden void @_ZN9Assembler12evpmadd52huqE11XMMRegisterS0_S0_i(ptr noundef nonnull align 8 dereferenceable(40) %0, i32 %1, i32 %2, i32 %3, i32 noundef %4) local_unnamed_addr #8 align 2 {
  %6 = alloca %class.InstructionAttr, align 8
  call void @llvm.lifetime.start.p0(i64 40, ptr nonnull %6)
  store i8 1, ptr %6, align 8
  %7 = getelementptr inbounds i8, ptr %6, i64 1
  %8 = load i32, ptr @UseAVX, align 4
  %9 = icmp slt i32 %8, 3
  %10 = zext i1 %9 to i8
  store i8 %10, ptr %7, align 1
  %11 = getelementptr inbounds i8, ptr %6, i64 2
  store i8 0, ptr %11, align 2
  %12 = getelementptr inbounds i8, ptr %6, i64 3
  store i8 1, ptr %12, align 1
  %13 = getelementptr inbounds i8, ptr %6, i64 4
  store i8 0, ptr %13, align 4
  %14 = getelementptr inbounds i8, ptr %6, i64 5
  %15 = getelementptr inbounds i8, ptr %6, i64 6
  store i8 1, ptr %15, align 2
  %16 = getelementptr inbounds i8, ptr %6, i64 7
  store i8 0, ptr %16, align 1
  %17 = getelementptr inbounds i8, ptr %6, i64 8
  store i32 %4, ptr %17, align 8
  %18 = getelementptr inbounds i8, ptr %6, i64 12
  store i32 24, ptr %18, align 4
  %19 = getelementptr inbounds i8, ptr %6, i64 16
  store i32 4, ptr %19, align 8
  %20 = getelementptr inbounds i8, ptr %6, i64 20
  store i32 0, ptr %20, align 4
  %21 = getelementptr inbounds i8, ptr %6, i64 24
  %22 = getelementptr inbounds i8, ptr %6, i64 32
  store ptr null, ptr %22, align 8
  store i8 1, ptr %14, align 1
  store i32 0, ptr %21, align 8
  %23 = sext i32 %1 to i64
  %24 = getelementptr inbounds %"class.XMMRegister::XMMRegisterImpl", ptr getelementptr inbounds (i8, ptr @all_XMMRegisterImpls, i64 1), i64 %23
  %25 = ptrtoint ptr %24 to i64
  %26 = trunc i64 %25 to i32
  %27 = sub i32 %26, ptrtoint (ptr getelementptr inbounds (i8, ptr @all_XMMRegisterImpls, i64 1) to i32)
  %28 = sext i32 %2 to i64
  %29 = getelementptr inbounds %"class.XMMRegister::XMMRegisterImpl", ptr getelementptr inbounds (i8, ptr @all_XMMRegisterImpls, i64 1), i64 %28
  %30 = ptrtoint ptr %29 to i64
  %31 = trunc i64 %30 to i32
  %32 = sub i32 %31, ptrtoint (ptr getelementptr inbounds (i8, ptr @all_XMMRegisterImpls, i64 1) to i32)
  %33 = sext i32 %3 to i64
  %34 = getelementptr inbounds %"class.XMMRegister::XMMRegisterImpl", ptr getelementptr inbounds (i8, ptr @all_XMMRegisterImpls, i64 1), i64 %33
  %35 = ptrtoint ptr %34 to i64
  %36 = trunc i64 %35 to i32
  %37 = sub i32 %36, ptrtoint (ptr getelementptr inbounds (i8, ptr @all_XMMRegisterImpls, i64 1) to i32)
  %38 = call noundef i32 @_ZN9Assembler21vex_prefix_and_encodeEiiiNS_13VexSimdPrefixENS_9VexOpcodeEP15InstructionAttrb(ptr noundef nonnull align 8 dereferenceable(40) %0, i32 noundef %27, i32 noundef %32, i32 noundef %37, i32 noundef 1, i32 noundef 2, ptr noundef nonnull %6, i1 noundef zeroext false)
  %39 = getelementptr inbounds i8, ptr %0, i64 8
  %40 = load ptr, ptr %39, align 8
  %41 = trunc nuw nsw i32 %38 to i8
  %.0.i2.i.i = or disjoint i8 %41, -64
  %42 = getelementptr inbounds i8, ptr %40, i64 16
  %43 = load ptr, ptr %42, align 8
  %44 = getelementptr inbounds i8, ptr %43, i64 1
  store i8 -75, ptr %43, align 1
  %45 = getelementptr inbounds i8, ptr %43, i64 2
  store i8 %.0.i2.i.i, ptr %44, align 1
  store ptr %45, ptr %42, align 8
  %46 = load ptr, ptr %22, align 8
  %.not.i.i = icmp eq ptr %46, null
  br i1 %.not.i.i, label %_ZN9Assembler12evpmadd52huqE11XMMRegister9KRegisterS0_S0_bi.exit, label %47

47:                                               ; preds = %5
  %48 = getelementptr inbounds i8, ptr %46, i64 32
  store ptr null, ptr %48, align 8
  br label %_ZN9Assembler12evpmadd52huqE11XMMRegister9KRegisterS0_S0_bi.exit

_ZN9Assembler12evpmadd52huqE11XMMRegister9KRegisterS0_S0_bi.exit: ; preds = %5, %47
  call void @llvm.lifetime.end.p0(i64 40, ptr nonnull %6)
  ret void
}